target datalayout = "e-m:e-p270:32:32-p271:32:32-p272:64:64-i64:64-i128:128-f80:128-n8:16:32:64-S128"
target triple = "x86_64-pc-linux-gnu"

; Function Attrs: mustprogress nounwind uwtable
define internal noundef i32 @_ZNSt3__1L12ucs4_to_utf8EPKjS1_RS1_PhS3_RS3_mNS_12codecvt_modeE(ptr noundef %0, ptr noundef %1, ptr noundef nonnull align 8 dereferenceable(8) %2, ptr noundef %3, ptr noundef %4, ptr noundef nonnull align 8 dereferenceable(8) %5, i64 noundef %6, i32 noundef %7) #0 {
  %9 = alloca i32, align 4
  %10 = alloca ptr, align 8
  %11 = alloca ptr, align 8
  %12 = alloca ptr, align 8
  %13 = alloca ptr, align 8
  %14 = alloca ptr, align 8
  %15 = alloca ptr, align 8
  %16 = alloca i64, align 8
  %17 = alloca i32, align 4
  %18 = alloca i32, align 4
  %19 = alloca i32, align 4
  store ptr %0, ptr %10, align 8, !tbaa !33
  store ptr %1, ptr %11, align 8, !tbaa !33
  store ptr %2, ptr %12, align 8, !tbaa !97
  store ptr %3, ptr %13, align 8, !tbaa !9
  store ptr %4, ptr %14, align 8, !tbaa !9
  store ptr %5, ptr %15, align 8, !tbaa !95
  store i64 %6, ptr %16, align 8, !tbaa !16
  store i32 %7, ptr %17, align 4, !tbaa !502
  %20 = load ptr, ptr %10, align 8, !tbaa !33
  %21 = load ptr, ptr %12, align 8, !tbaa !97
  store ptr %20, ptr %21, align 8, !tbaa !33
  %22 = load ptr, ptr %13, align 8, !tbaa !9
  %23 = load ptr, ptr %15, align 8, !tbaa !95
  store ptr %22, ptr %23, align 8, !tbaa !9
  %24 = load i32, ptr %17, align 4, !tbaa !502
  %25 = and i32 %24, 2
  %26 = icmp ne i32 %25, 0
  br i1 %26, label %27, label %46

27:                                               ; preds = %8
  %28 = load ptr, ptr %14, align 8, !tbaa !9
  %29 = load ptr, ptr %15, align 8, !tbaa !95
  %30 = load ptr, ptr %29, align 8, !tbaa !9
  %31 = ptrtoint ptr %28 to i64
  %32 = ptrtoint ptr %30 to i64
  %33 = sub i64 %31, %32
  %34 = icmp slt i64 %33, 3
  br i1 %34, label %35, label %36

35:                                               ; preds = %27
  store i32 1, ptr %9, align 4
  br label %196

36:                                               ; preds = %27
  %37 = load ptr, ptr %15, align 8, !tbaa !95
  %38 = load ptr, ptr %37, align 8, !tbaa !9
  %39 = getelementptr inbounds nuw i8, ptr %38, i32 1
  store ptr %39, ptr %37, align 8, !tbaa !9
  store i8 -17, ptr %38, align 1, !tbaa !11
  %40 = load ptr, ptr %15, align 8, !tbaa !95
  %41 = load ptr, ptr %40, align 8, !tbaa !9
  %42 = getelementptr inbounds nuw i8, ptr %41, i32 1
  store ptr %42, ptr %40, align 8, !tbaa !9
  store i8 -69, ptr %41, align 1, !tbaa !11
  %43 = load ptr, ptr %15, align 8, !tbaa !95
  %44 = load ptr, ptr %43, align 8, !tbaa !9
  %45 = getelementptr inbounds nuw i8, ptr %44, i32 1
  store ptr %45, ptr %43, align 8, !tbaa !9
  store i8 -65, ptr %44, align 1, !tbaa !11
  br label %46

46:                                               ; preds = %36, %8
  br label %47

47:                                               ; preds = %191, %46
  %48 = load ptr, ptr %12, align 8, !tbaa !97
  %49 = load ptr, ptr %48, align 8, !tbaa !33
  %50 = load ptr, ptr %11, align 8, !tbaa !33
  %51 = icmp ult ptr %49, %50
  br i1 %51, label %52, label %195

52:                                               ; preds = %47
  call void @llvm.lifetime.start.p0(i64 4, ptr %18) #13
  %53 = load ptr, ptr %12, align 8, !tbaa !97
  %54 = load ptr, ptr %53, align 8, !tbaa !33
  %55 = load i32, ptr %54, align 4, !tbaa !41
  store i32 %55, ptr %18, align 4, !tbaa !41
  %56 = load i32, ptr %18, align 4, !tbaa !41
  %57 = and i32 %56, -2048
  %58 = icmp eq i32 %57, 55296
  br i1 %58, label %64, label %59

59:                                               ; preds = %52
  %60 = load i32, ptr %18, align 4, !tbaa !41
  %61 = zext i32 %60 to i64
  %62 = load i64, ptr %16, align 8, !tbaa !16
  %63 = icmp ugt i64 %61, %62
  br i1 %63, label %64, label %65

64:                                               ; preds = %59, %52
  store i32 2, ptr %9, align 4
  store i32 1, ptr %19, align 4
  br label %188

65:                                               ; preds = %59
  %66 = load i32, ptr %18, align 4, !tbaa !41
  %67 = icmp ult i32 %66, 128
  br i1 %67, label %68, label %83

68:                                               ; preds = %65
  %69 = load ptr, ptr %14, align 8, !tbaa !9
  %70 = load ptr, ptr %15, align 8, !tbaa !95
  %71 = load ptr, ptr %70, align 8, !tbaa !9
  %72 = ptrtoint ptr %69 to i64
  %73 = ptrtoint ptr %71 to i64
  %74 = sub i64 %72, %73
  %75 = icmp slt i64 %74, 1
  br i1 %75, label %76, label %77

76:                                               ; preds = %68
  store i32 1, ptr %9, align 4
  store i32 1, ptr %19, align 4
  br label %188

77:                                               ; preds = %68
  %78 = load i32, ptr %18, align 4, !tbaa !41
  %79 = trunc i32 %78 to i8
  %80 = load ptr, ptr %15, align 8, !tbaa !95
  %81 = load ptr, ptr %80, align 8, !tbaa !9
  %82 = getelementptr inbounds nuw i8, ptr %81, i32 1
  store ptr %82, ptr %80, align 8, !tbaa !9
  store i8 %79, ptr %81, align 1, !tbaa !11
  br label %187

83:                                               ; preds = %65
  %84 = load i32, ptr %18, align 4, !tbaa !41
  %85 = icmp ult i32 %84, 2048
  br i1 %85, label %86, label %110

86:                                               ; preds = %83
  %87 = load ptr, ptr %14, align 8, !tbaa !9
  %88 = load ptr, ptr %15, align 8, !tbaa !95
  %89 = load ptr, ptr %88, align 8, !tbaa !9
  %90 = ptrtoint ptr %87 to i64
  %91 = ptrtoint ptr %89 to i64
  %92 = sub i64 %90, %91
  %93 = icmp slt i64 %92, 2
  br i1 %93, label %94, label %95

94:                                               ; preds = %86
  store i32 1, ptr %9, align 4
  store i32 1, ptr %19, align 4
  br label %188

95:                                               ; preds = %86
  %96 = load i32, ptr %18, align 4, !tbaa !41
  %97 = lshr i32 %96, 6
  %98 = or i32 192, %97
  %99 = trunc i32 %98 to i8
  %100 = load ptr, ptr %15, align 8, !tbaa !95
  %101 = load ptr, ptr %100, align 8, !tbaa !9
  %102 = getelementptr inbounds nuw i8, ptr %101, i32 1
  store ptr %102, ptr %100, align 8, !tbaa !9
  store i8 %99, ptr %101, align 1, !tbaa !11
  %103 = load i32, ptr %18, align 4, !tbaa !41
  %104 = and i32 %103, 63
  %105 = or i32 128, %104
  %106 = trunc i32 %105 to i8
  %107 = load ptr, ptr %15, align 8, !tbaa !95
  %108 = load ptr, ptr %107, align 8, !tbaa !9
  %109 = getelementptr inbounds nuw i8, ptr %108, i32 1
  store ptr %109, ptr %107, align 8, !tbaa !9
  store i8 %106, ptr %108, align 1, !tbaa !11
  br label %186

110:                                              ; preds = %83
  %111 = load i32, ptr %18, align 4, !tbaa !41
  %112 = icmp ult i32 %111, 65536
  br i1 %112, label %113, label %145

113:                                              ; preds = %110
  %114 = load ptr, ptr %14, align 8, !tbaa !9
  %115 = load ptr, ptr %15, align 8, !tbaa !95
  %116 = load ptr, ptr %115, align 8, !tbaa !9
  %117 = ptrtoint ptr %114 to i64
  %118 = ptrtoint ptr %116 to i64
  %119 = sub i64 %117, %118
  %120 = icmp slt i64 %119, 3
  br i1 %120, label %121, label %122

121:                                              ; preds = %113
  store i32 1, ptr %9, align 4
  store i32 1, ptr %19, align 4
  br label %188

122:                                              ; preds = %113
  %123 = load i32, ptr %18, align 4, !tbaa !41
  %124 = lshr i32 %123, 12
  %125 = or i32 224, %124
  %126 = trunc i32 %125 to i8
  %127 = load ptr, ptr %15, align 8, !tbaa !95
  %128 = load ptr, ptr %127, align 8, !tbaa !9
  %129 = getelementptr inbounds nuw i8, ptr %128, i32 1
  store ptr %129, ptr %127, align 8, !tbaa !9
  store i8 %126, ptr %128, align 1, !tbaa !11
  %130 = load i32, ptr %18, align 4, !tbaa !41
  %131 = and i32 %130, 4032
  %132 = lshr i32 %131, 6
  %133 = or i32 128, %132
  %134 = trunc i32 %133 to i8
  %135 = load ptr, ptr %15, align 8, !tbaa !95
  %136 = load ptr, ptr %135, align 8, !tbaa !9
  %137 = getelementptr inbounds nuw i8, ptr %136, i32 1
  store ptr %137, ptr %135, align 8, !tbaa !9
  store i8 %134, ptr %136, align 1, !tbaa !11
  %138 = load i32, ptr %18, align 4, !tbaa !41
  %139 = and i32 %138, 63
  %140 = or i32 128, %139
  %141 = trunc i32 %140 to i8
  %142 = load ptr, ptr %15, align 8, !tbaa !95
  %143 = load ptr, ptr %142, align 8, !tbaa !9
  %144 = getelementptr inbounds nuw i8, ptr %143, i32 1
  store ptr %144, ptr %142, align 8, !tbaa !9
  store i8 %141, ptr %143, align 1, !tbaa !11
  br label %185

145:                                              ; preds = %110
  %146 = load ptr, ptr %14, align 8, !tbaa !9
  %147 = load ptr, ptr %15, align 8, !tbaa !95
  %148 = load ptr, ptr %147, align 8, !tbaa !9
  %149 = ptrtoint ptr %146 to i64
  %150 = ptrtoint ptr %148 to i64
  %151 = sub i64 %149, %150
  %152 = icmp slt i64 %151, 4
  br i1 %152, label %153, label %154

153:                                              ; preds = %145
  store i32 1, ptr %9, align 4
  store i32 1, ptr %19, align 4
  br label %188

154:                                              ; preds = %145
  %155 = load i32, ptr %18, align 4, !tbaa !41
  %156 = lshr i32 %155, 18
  %157 = or i32 240, %156
  %158 = trunc i32 %157 to i8
  %159 = load ptr, ptr %15, align 8, !tbaa !95
  %160 = load ptr, ptr %159, align 8, !tbaa !9
  %161 = getelementptr inbounds nuw i8, ptr %160, i32 1
  store ptr %161, ptr %159, align 8, !tbaa !9
  store i8 %158, ptr %160, align 1, !tbaa !11
  %162 = load i32, ptr %18, align 4, !tbaa !41
  %163 = and i32 %162, 258048
  %164 = lshr i32 %163, 12
  %165 = or i32 128, %164
  %166 = trunc i32 %165 to i8
  %167 = load ptr, ptr %15, align 8, !tbaa !95
  %168 = load ptr, ptr %167, align 8, !tbaa !9
  %169 = getelementptr inbounds nuw i8, ptr %168, i32 1
  store ptr %169, ptr %167, align 8, !tbaa !9
  store i8 %166, ptr %168, align 1, !tbaa !11
  %170 = load i32, ptr %18, align 4, !tbaa !41
  %171 = and i32 %170, 4032
  %172 = lshr i32 %171, 6
  %173 = or i32 128, %172
  %174 = trunc i32 %173 to i8
  %175 = load ptr, ptr %15, align 8, !tbaa !95
  %176 = load ptr, ptr %175, align 8, !tbaa !9
  %177 = getelementptr inbounds nuw i8, ptr %176, i32 1
  store ptr %177, ptr %175, align 8, !tbaa !9
  store i8 %174, ptr %176, align 1, !tbaa !11
  %178 = load i32, ptr %18, align 4, !tbaa !41
  %179 = and i32 %178, 63
  %180 = or i32 128, %179
  %181 = trunc i32 %180 to i8
  %182 = load ptr, ptr %15, align 8, !tbaa !95
  %183 = load ptr, ptr %182, align 8, !tbaa !9
  %184 = getelementptr inbounds nuw i8, ptr %183, i32 1
  store ptr %184, ptr %182, align 8, !tbaa !9
  store i8 %181, ptr %183, align 1, !tbaa !11
  br label %185

185:                                              ; preds = %154, %122
  br label %186

186:                                              ; preds = %185, %95
  br label %187

187:                                              ; preds = %186, %77
  store i32 0, ptr %19, align 4
  br label %188

188:                                              ; preds = %187, %153, %121, %94, %76, %64
  call void @llvm.lifetime.end.p0(i64 4, ptr %18) #13
  %189 = load i32, ptr %19, align 4
  switch i32 %189, label %198 [
    i32 0, label %190
    i32 1, label %196
  ]

190:                                              ; preds = %188
  br label %191

191:                                              ; preds = %190
  %192 = load ptr, ptr %12, align 8, !tbaa !97
  %193 = load ptr, ptr %192, align 8, !tbaa !33
  %194 = getelementptr inbounds nuw i32, ptr %193, i32 1
  store ptr %194, ptr %192, align 8, !tbaa !33
  br label %47, !llvm.loop !513

195:                                              ; preds = %47
  store i32 0, ptr %9, align 4
  br label %196

196:                                              ; preds = %195, %188, %35
  %197 = load i32, ptr %9, align 4
  ret i32 %197

198:                                              ; preds = %188
  unreachable
}

; Function Attrs: mustprogress uwtable
define dso_local noundef i32 @_ZNKSt3__17codecvtIDiDu11__mbstate_tE6do_outERS1_PKDiS5_RS5_PDuS7_RS7_(ptr noundef nonnull align 8 dereferenceable(16) %0, ptr noundef nonnull align 4 dereferenceable(8) %1, ptr noundef %2, ptr noundef %3, ptr noundef nonnull align 8 dereferenceable(8) %4, ptr noundef %5, ptr noundef %6, ptr noundef nonnull align 8 dereferenceable(8) %7) unnamed_addr #2 align 2 {
  %9 = alloca ptr, align 8
  %10 = alloca ptr, align 8
  %11 = alloca ptr, align 8
  %12 = alloca ptr, align 8
  %13 = alloca ptr, align 8
  %14 = alloca ptr, align 8
  %15 = alloca ptr, align 8
  %16 = alloca ptr, align 8
  %17 = alloca ptr, align 8
  %18 = alloca ptr, align 8
  %19 = alloca ptr, align 8
  %20 = alloca ptr, align 8
  %21 = alloca ptr, align 8
  %22 = alloca ptr, align 8
  %23 = alloca i32, align 4
  store ptr %0, ptr %9, align 8, !tbaa !384
  store ptr %1, ptr %10, align 8, !tbaa !55
  store ptr %2, ptr %11, align 8, !tbaa !339
  store ptr %3, ptr %12, align 8, !tbaa !339
  store ptr %4, ptr %13, align 8, !tbaa !511
  store ptr %5, ptr %14, align 8, !tbaa !507
  store ptr %6, ptr %15, align 8, !tbaa !507
  store ptr %7, ptr %16, align 8, !tbaa !509
  call void @llvm.lifetime.start.p0(i64 8, ptr %17) #13
  %24 = load ptr, ptr %11, align 8, !tbaa !339
  store ptr %24, ptr %17, align 8, !tbaa !33
  call void @llvm.lifetime.start.p0(i64 8, ptr %18) #13
  %25 = load ptr, ptr %12, align 8, !tbaa !339
  store ptr %25, ptr %18, align 8, !tbaa !33
  call void @llvm.lifetime.start.p0(i64 8, ptr %19) #13
  %26 = load ptr, ptr %17, align 8, !tbaa !33
  store ptr %26, ptr %19, align 8, !tbaa !33
  call void @llvm.lifetime.start.p0(i64 8, ptr %20) #13
  %27 = load ptr, ptr %14, align 8, !tbaa !507
  store ptr %27, ptr %20, align 8, !tbaa !9
  call void @llvm.lifetime.start.p0(i64 8, ptr %21) #13
  %28 = load ptr, ptr %15, align 8, !tbaa !507
  store ptr %28, ptr %21, align 8, !tbaa !9
  call void @llvm.lifetime.start.p0(i64 8, ptr %22) #13
  %29 = load ptr, ptr %20, align 8, !tbaa !9
  store ptr %29, ptr %22, align 8, !tbaa !9
  call void @llvm.lifetime.start.p0(i64 4, ptr %23) #13
  %30 = load ptr, ptr %17, align 8, !tbaa !33
  %31 = load ptr, ptr %18, align 8, !tbaa !33
  %32 = load ptr, ptr %20, align 8, !tbaa !9
  %33 = load ptr, ptr %21, align 8, !tbaa !9
  %34 = call noundef i32 @_ZNSt3__1L12ucs4_to_utf8EPKjS1_RS1_PhS3_RS3_mNS_12codecvt_modeE(ptr noundef %30, ptr noundef %31, ptr noundef nonnull align 8 dereferenceable(8) %19, ptr noundef %32, ptr noundef %33, ptr noundef nonnull align 8 dereferenceable(8) %22, i64 noundef 1114111, i32 noundef 0)
  store i32 %34, ptr %23, align 4, !tbaa !337
  %35 = load ptr, ptr %11, align 8, !tbaa !339
  %36 = load ptr, ptr %19, align 8, !tbaa !33
  %37 = load ptr, ptr %17, align 8, !tbaa !33
  %38 = ptrtoint ptr %36 to i64
  %39 = ptrtoint ptr %37 to i64
  %40 = sub i64 %38, %39
  %41 = sdiv exact i64 %40, 4
  %42 = getelementptr inbounds i32, ptr %35, i64 %41
  %43 = load ptr, ptr %13, align 8, !tbaa !511
  store ptr %42, ptr %43, align 8, !tbaa !339
  %44 = load ptr, ptr %14, align 8, !tbaa !507
  %45 = load ptr, ptr %22, align 8, !tbaa !9
  %46 = load ptr, ptr %20, align 8, !tbaa !9
  %47 = ptrtoint ptr %45 to i64
  %48 = ptrtoint ptr %46 to i64
  %49 = sub i64 %47, %48
  %50 = getelementptr inbounds i8, ptr %44, i64 %49
  %51 = load ptr, ptr %16, align 8, !tbaa !509
  store ptr %50, ptr %51, align 8, !tbaa !507
  %52 = load i32, ptr %23, align 4, !tbaa !337
  call void @llvm.lifetime.end.p0(i64 4, ptr %23) #13
  call void @llvm.lifetime.end.p0(i64 8, ptr %22) #13
  call void @llvm.lifetime.end.p0(i64 8, ptr %21) #13
  call void @llvm.lifetime.end.p0(i64 8, ptr %20) #13
  call void @llvm.lifetime.end.p0(i64 8, ptr %19) #13
  call void @llvm.lifetime.end.p0(i64 8, ptr %18) #13
  call void @llvm.lifetime.end.p0(i64 8, ptr %17) #13
  ret i32 %52
}