; Function Attrs: mustprogress nofree norecurse nosync nounwind memory(argmem: readwrite) uwtable
define dso_local noundef range(i32 0, 3) i32 @_ZNKSt3__17codecvtIDiDu11__mbstate_tE6do_outERS1_PKDiS5_RS5_PDuS7_RS7_(ptr nonnull readnone align 8 captures(none) %0, ptr nonnull readnone align 4 captures(none) %1, ptr noundef %2, ptr noundef readnone captures(address) %3, ptr noundef nonnull writeonly align 8 captures(none) dereferenceable(8) %4, ptr noundef %5, ptr noundef %6, ptr noundef nonnull writeonly align 8 captures(none) dereferenceable(8) %7) unnamed_addr #24 align 2 {
  %9 = icmp ult ptr %2, %3
  br i1 %9, label %.lr.ph.i, label %_ZNSt3__1L12ucs4_to_utf8EPKjS1_RS1_PhS3_RS3_mNS_12codecvt_modeE.exit

.lr.ph.i:                                         ; preds = %8
  %10 = ptrtoint ptr %6 to i64
  br label %11

11:                                               ; preds = %81, %.lr.ph.i
  %.027 = phi ptr [ %2, %.lr.ph.i ], [ %82, %81 ]
  %.0 = phi ptr [ %5, %.lr.ph.i ], [ %.1, %81 ]
  %12 = load i32, ptr %.027, align 4, !tbaa !27
  %13 = and i32 %12, -2048
  %14 = icmp eq i32 %13, 55296
  %15 = icmp ugt i32 %12, 1114111
  %or.cond.i = or i1 %15, %14
  br i1 %or.cond.i, label %_ZNSt3__1L12ucs4_to_utf8EPKjS1_RS1_PhS3_RS3_mNS_12codecvt_modeE.exit, label %16

16:                                               ; preds = %11
  %17 = icmp samesign ult i32 %12, 128
  br i1 %17, label %18, label %25

18:                                               ; preds = %16
  %19 = ptrtoint ptr %.0 to i64
  %20 = sub i64 %10, %19
  %21 = icmp slt i64 %20, 1
  br i1 %21, label %_ZNSt3__1L12ucs4_to_utf8EPKjS1_RS1_PhS3_RS3_mNS_12codecvt_modeE.exit, label %22

22:                                               ; preds = %18
  %23 = trunc nuw nsw i32 %12 to i8
  %24 = getelementptr inbounds nuw i8, ptr %.0, i64 1
  store i8 %23, ptr %.0, align 1, !tbaa !4
  br label %81

25:                                               ; preds = %16
  %26 = icmp samesign ult i32 %12, 2048
  br i1 %26, label %27, label %40

27:                                               ; preds = %25
  %28 = ptrtoint ptr %.0 to i64
  %29 = sub i64 %10, %28
  %30 = icmp slt i64 %29, 2
  br i1 %30, label %_ZNSt3__1L12ucs4_to_utf8EPKjS1_RS1_PhS3_RS3_mNS_12codecvt_modeE.exit, label %31

31:                                               ; preds = %27
  %32 = lshr i32 %12, 6
  %33 = trunc nuw nsw i32 %32 to i8
  %34 = or disjoint i8 %33, -64
  %35 = getelementptr inbounds nuw i8, ptr %.0, i64 1
  store i8 %34, ptr %.0, align 1, !tbaa !4
  %36 = trunc i32 %12 to i8
  %37 = and i8 %36, 63
  %38 = or disjoint i8 %37, -128
  %39 = getelementptr inbounds nuw i8, ptr %.0, i64 2
  store i8 %38, ptr %35, align 1, !tbaa !4
  br label %81

40:                                               ; preds = %25
  %41 = icmp samesign ult i32 %12, 65536
  %42 = ptrtoint ptr %.0 to i64
  %43 = sub i64 %10, %42
  br i1 %41, label %44, label %60

44:                                               ; preds = %40
  %45 = icmp slt i64 %43, 3
  br i1 %45, label %_ZNSt3__1L12ucs4_to_utf8EPKjS1_RS1_PhS3_RS3_mNS_12codecvt_modeE.exit, label %46

46:                                               ; preds = %44
  %47 = lshr i32 %12, 12
  %48 = trunc nuw nsw i32 %47 to i8
  %49 = or disjoint i8 %48, -32
  %50 = getelementptr inbounds nuw i8, ptr %.0, i64 1
  store i8 %49, ptr %.0, align 1, !tbaa !4
  %51 = lshr i32 %12, 6
  %52 = trunc i32 %51 to i8
  %53 = and i8 %52, 63
  %54 = or disjoint i8 %53, -128
  %55 = getelementptr inbounds nuw i8, ptr %.0, i64 2
  store i8 %54, ptr %50, align 1, !tbaa !4
  %56 = trunc i32 %12 to i8
  %57 = and i8 %56, 63
  %58 = or disjoint i8 %57, -128
  %59 = getelementptr inbounds nuw i8, ptr %.0, i64 3
  store i8 %58, ptr %55, align 1, !tbaa !4
  br label %81

60:                                               ; preds = %40
  %61 = icmp slt i64 %43, 4
  br i1 %61, label %_ZNSt3__1L12ucs4_to_utf8EPKjS1_RS1_PhS3_RS3_mNS_12codecvt_modeE.exit, label %62

62:                                               ; preds = %60
  %63 = lshr i32 %12, 18
  %64 = trunc nuw nsw i32 %63 to i8
  %65 = or disjoint i8 %64, -16
  %66 = getelementptr inbounds nuw i8, ptr %.0, i64 1
  store i8 %65, ptr %.0, align 1, !tbaa !4
  %67 = lshr i32 %12, 12
  %68 = trunc i32 %67 to i8
  %69 = and i8 %68, 63
  %70 = or disjoint i8 %69, -128
  %71 = getelementptr inbounds nuw i8, ptr %.0, i64 2
  store i8 %70, ptr %66, align 1, !tbaa !4
  %72 = lshr i32 %12, 6
  %73 = trunc i32 %72 to i8
  %74 = and i8 %73, 63
  %75 = or disjoint i8 %74, -128
  %76 = getelementptr inbounds nuw i8, ptr %.0, i64 3
  store i8 %75, ptr %71, align 1, !tbaa !4
  %77 = trunc i32 %12 to i8
  %78 = and i8 %77, 63
  %79 = or disjoint i8 %78, -128
  %80 = getelementptr inbounds nuw i8, ptr %.0, i64 4
  store i8 %79, ptr %76, align 1, !tbaa !4
  br label %81

81:                                               ; preds = %62, %46, %31, %22
  %.1 = phi ptr [ %24, %22 ], [ %39, %31 ], [ %59, %46 ], [ %80, %62 ]
  %82 = getelementptr inbounds nuw i8, ptr %.027, i64 4
  %83 = icmp ult ptr %82, %3
  br i1 %83, label %11, label %_ZNSt3__1L12ucs4_to_utf8EPKjS1_RS1_PhS3_RS3_mNS_12codecvt_modeE.exit, !llvm.loop !427

_ZNSt3__1L12ucs4_to_utf8EPKjS1_RS1_PhS3_RS3_mNS_12codecvt_modeE.exit: ; preds = %11, %18, %27, %44, %60, %81, %8
  %.128 = phi ptr [ %2, %8 ], [ %.027, %60 ], [ %.027, %44 ], [ %.027, %27 ], [ %82, %81 ], [ %.027, %18 ], [ %.027, %11 ]
  %.2 = phi ptr [ %5, %8 ], [ %.0, %60 ], [ %.0, %44 ], [ %.0, %27 ], [ %.1, %81 ], [ %.0, %18 ], [ %.0, %11 ]
  %.049.i = phi i32 [ 0, %8 ], [ 1, %60 ], [ 1, %44 ], [ 1, %27 ], [ 0, %81 ], [ 1, %18 ], [ 2, %11 ]
  %84 = ptrtoint ptr %.128 to i64
  %85 = ptrtoint ptr %2 to i64
  %86 = sub i64 %84, %85
  %87 = getelementptr inbounds i8, ptr %2, i64 %86
  store ptr %87, ptr %4, align 8, !tbaa !330
  %88 = ptrtoint ptr %.2 to i64
  %89 = ptrtoint ptr %5 to i64
  %90 = sub i64 %88, %89
  %91 = getelementptr inbounds i8, ptr %5, i64 %90
  store ptr %91, ptr %7, align 8, !tbaa !425
  ret i32 %.049.i
}